target datalayout = "e-m:e-p270:32:32-p271:32:32-p272:64:64-i64:64-i128:128-f80:128-n8:16:32:64-S128"
target triple = "x86_64-pc-linux-gnu"

%struct.CONF_VALUE = type { ptr, ptr, ptr }

@.str.10 = private unnamed_addr constant [6 x i8] c"email\00", align 1
@.str.11 = private unnamed_addr constant [4 x i8] c"DNS\00", align 1
@.str.12 = private unnamed_addr constant [4 x i8] c"URI\00", align 1
@.str.15 = private unnamed_addr constant [32 x i8] c"../openssl/crypto/x509/v3_san.c\00", align 1
@__func__.v2i_GENERAL_NAME_ex = private unnamed_addr constant [20 x i8] c"v2i_GENERAL_NAME_ex\00", align 1
@.str.32 = private unnamed_addr constant [4 x i8] c"RID\00", align 1
@.str.33 = private unnamed_addr constant [3 x i8] c"IP\00", align 1
@.str.34 = private unnamed_addr constant [8 x i8] c"dirName\00", align 1
@.str.35 = private unnamed_addr constant [10 x i8] c"otherName\00", align 1
@.str.36 = private unnamed_addr constant [8 x i8] c"name=%s\00", align 1

; Function Attrs: nounwind uwtable
define ptr @v2i_GENERAL_NAME_ex(ptr noundef %0, ptr noundef %1, ptr noundef %2, ptr noundef %3, i32 noundef %4) #1 {
  %6 = alloca ptr, align 8
  %7 = alloca ptr, align 8
  %8 = alloca ptr, align 8
  %9 = alloca ptr, align 8
  %10 = alloca ptr, align 8
  %11 = alloca i32, align 4
  %12 = alloca i32, align 4
  %13 = alloca ptr, align 8
  %14 = alloca ptr, align 8
  %15 = alloca i32, align 4
  store ptr %0, ptr %7, align 8, !tbaa !14
  store ptr %1, ptr %8, align 8, !tbaa !3
  store ptr %2, ptr %9, align 8, !tbaa !18
  store ptr %3, ptr %10, align 8, !tbaa !20
  store i32 %4, ptr %11, align 4, !tbaa !12
  call void @llvm.lifetime.start.p0(i64 4, ptr %12) #5
  call void @llvm.lifetime.start.p0(i64 8, ptr %13) #5
  call void @llvm.lifetime.start.p0(i64 8, ptr %14) #5
  %16 = load ptr, ptr %10, align 8, !tbaa !20
  %17 = getelementptr inbounds nuw %struct.CONF_VALUE, ptr %16, i32 0, i32 1
  %18 = load ptr, ptr %17, align 8, !tbaa !21
  store ptr %18, ptr %13, align 8, !tbaa !41
  %19 = load ptr, ptr %10, align 8, !tbaa !20
  %20 = getelementptr inbounds nuw %struct.CONF_VALUE, ptr %19, i32 0, i32 2
  %21 = load ptr, ptr %20, align 8, !tbaa !24
  store ptr %21, ptr %14, align 8, !tbaa !41
  %22 = load ptr, ptr %14, align 8, !tbaa !41
  %23 = icmp ne ptr %22, null
  br i1 %23, label %25, label %24

24:                                               ; preds = %5
  call void @ERR_new()
  call void @ERR_set_debug(ptr noundef @.str.15, i32 noundef 611, ptr noundef @__func__.v2i_GENERAL_NAME_ex)
  call void (i32, i32, ptr, ...) @ERR_set_error(i32 noundef 34, i32 noundef 124, ptr noundef null)
  store ptr null, ptr %6, align 8
  store i32 1, ptr %15, align 4
  br label %76

25:                                               ; preds = %5
  %26 = load ptr, ptr %13, align 8, !tbaa !41
  %27 = call i32 @ossl_v3_name_cmp(ptr noundef %26, ptr noundef @.str.10)
  %28 = icmp ne i32 %27, 0
  br i1 %28, label %30, label %29

29:                                               ; preds = %25
  store i32 1, ptr %12, align 4, !tbaa !12
  br label %68

30:                                               ; preds = %25
  %31 = load ptr, ptr %13, align 8, !tbaa !41
  %32 = call i32 @ossl_v3_name_cmp(ptr noundef %31, ptr noundef @.str.12)
  %33 = icmp ne i32 %32, 0
  br i1 %33, label %35, label %34

34:                                               ; preds = %30
  store i32 6, ptr %12, align 4, !tbaa !12
  br label %67

35:                                               ; preds = %30
  %36 = load ptr, ptr %13, align 8, !tbaa !41
  %37 = call i32 @ossl_v3_name_cmp(ptr noundef %36, ptr noundef @.str.11)
  %38 = icmp ne i32 %37, 0
  br i1 %38, label %40, label %39

39:                                               ; preds = %35
  store i32 2, ptr %12, align 4, !tbaa !12
  br label %66

40:                                               ; preds = %35
  %41 = load ptr, ptr %13, align 8, !tbaa !41
  %42 = call i32 @ossl_v3_name_cmp(ptr noundef %41, ptr noundef @.str.32)
  %43 = icmp ne i32 %42, 0
  br i1 %43, label %45, label %44

44:                                               ; preds = %40
  store i32 8, ptr %12, align 4, !tbaa !12
  br label %65

45:                                               ; preds = %40
  %46 = load ptr, ptr %13, align 8, !tbaa !41
  %47 = call i32 @ossl_v3_name_cmp(ptr noundef %46, ptr noundef @.str.33)
  %48 = icmp ne i32 %47, 0
  br i1 %48, label %50, label %49

49:                                               ; preds = %45
  store i32 7, ptr %12, align 4, !tbaa !12
  br label %64

50:                                               ; preds = %45
  %51 = load ptr, ptr %13, align 8, !tbaa !41
  %52 = call i32 @ossl_v3_name_cmp(ptr noundef %51, ptr noundef @.str.34)
  %53 = icmp ne i32 %52, 0
  br i1 %53, label %55, label %54

54:                                               ; preds = %50
  store i32 4, ptr %12, align 4, !tbaa !12
  br label %63

55:                                               ; preds = %50
  %56 = load ptr, ptr %13, align 8, !tbaa !41
  %57 = call i32 @ossl_v3_name_cmp(ptr noundef %56, ptr noundef @.str.35)
  %58 = icmp ne i32 %57, 0
  br i1 %58, label %60, label %59

59:                                               ; preds = %55
  store i32 0, ptr %12, align 4, !tbaa !12
  br label %62

60:                                               ; preds = %55
  call void @ERR_new()
  call void @ERR_set_debug(ptr noundef @.str.15, i32 noundef 630, ptr noundef @__func__.v2i_GENERAL_NAME_ex)
  %61 = load ptr, ptr %13, align 8, !tbaa !41
  call void (i32, i32, ptr, ...) @ERR_set_error(i32 noundef 34, i32 noundef 117, ptr noundef @.str.36, ptr noundef %61)
  store ptr null, ptr %6, align 8
  store i32 1, ptr %15, align 4
  br label %76

62:                                               ; preds = %59
  br label %63

63:                                               ; preds = %62, %54
  br label %64

64:                                               ; preds = %63, %49
  br label %65

65:                                               ; preds = %64, %44
  br label %66

66:                                               ; preds = %65, %39
  br label %67

67:                                               ; preds = %66, %34
  br label %68

68:                                               ; preds = %67, %29
  %69 = load ptr, ptr %7, align 8, !tbaa !14
  %70 = load ptr, ptr %8, align 8, !tbaa !3
  %71 = load ptr, ptr %9, align 8, !tbaa !18
  %72 = load i32, ptr %12, align 4, !tbaa !12
  %73 = load ptr, ptr %14, align 8, !tbaa !41
  %74 = load i32, ptr %11, align 4, !tbaa !12
  %75 = call ptr @a2i_GENERAL_NAME(ptr noundef %69, ptr noundef %70, ptr noundef %71, i32 noundef %72, ptr noundef %73, i32 noundef %74)
  store ptr %75, ptr %6, align 8
  store i32 1, ptr %15, align 4
  br label %76

76:                                               ; preds = %68, %60, %24
  call void @llvm.lifetime.end.p0(i64 8, ptr %14) #5
  call void @llvm.lifetime.end.p0(i64 8, ptr %13) #5
  call void @llvm.lifetime.end.p0(i64 4, ptr %12) #5
  %77 = load ptr, ptr %6, align 8
  ret ptr %77
}