; Function Attrs: nounwind uwtable
define ptr @v2i_GENERAL_NAME_ex(ptr noundef %0, ptr noundef readnone captures(none) %1, ptr noundef %2, ptr noundef readonly captures(none) %3, i32 noundef %4) local_unnamed_addr #1 {
  %6 = getelementptr inbounds nuw i8, ptr %3, i64 8
  %7 = load ptr, ptr %6, align 8, !tbaa !5
  %8 = getelementptr inbounds nuw i8, ptr %3, i64 16
  %9 = load ptr, ptr %8, align 8, !tbaa !11
  %.not = icmp eq ptr %9, null
  br i1 %.not, label %10, label %11

10:                                               ; preds = %5
  tail call void @ERR_new() #4
  tail call void @ERR_set_debug(ptr noundef nonnull @.str.15, i32 noundef 611, ptr noundef nonnull @__func__.v2i_GENERAL_NAME_ex) #4
  tail call void (i32, i32, ptr, ...) @ERR_set_error(i32 noundef 34, i32 noundef 124, ptr noundef null) #4
  br label %28

11:                                               ; preds = %5
  %12 = tail call i32 @ossl_v3_name_cmp(ptr noundef %7, ptr noundef nonnull @.str.10) #4
  %.not19 = icmp eq i32 %12, 0
  br i1 %.not19, label %26, label %13

13:                                               ; preds = %11
  %14 = tail call i32 @ossl_v3_name_cmp(ptr noundef %7, ptr noundef nonnull @.str.12) #4
  %.not20 = icmp eq i32 %14, 0
  br i1 %.not20, label %26, label %15

15:                                               ; preds = %13
  %16 = tail call i32 @ossl_v3_name_cmp(ptr noundef %7, ptr noundef nonnull @.str.11) #4
  %.not21 = icmp eq i32 %16, 0
  br i1 %.not21, label %26, label %17

17:                                               ; preds = %15
  %18 = tail call i32 @ossl_v3_name_cmp(ptr noundef %7, ptr noundef nonnull @.str.32) #4
  %.not22 = icmp eq i32 %18, 0
  br i1 %.not22, label %26, label %19

19:                                               ; preds = %17
  %20 = tail call i32 @ossl_v3_name_cmp(ptr noundef %7, ptr noundef nonnull @.str.33) #4
  %.not23 = icmp eq i32 %20, 0
  br i1 %.not23, label %26, label %21

21:                                               ; preds = %19
  %22 = tail call i32 @ossl_v3_name_cmp(ptr noundef %7, ptr noundef nonnull @.str.34) #4
  %.not24 = icmp eq i32 %22, 0
  br i1 %.not24, label %26, label %23

23:                                               ; preds = %21
  %24 = tail call i32 @ossl_v3_name_cmp(ptr noundef %7, ptr noundef nonnull @.str.35) #4
  %.not25 = icmp eq i32 %24, 0
  br i1 %.not25, label %26, label %25

25:                                               ; preds = %23
  tail call void @ERR_new() #4
  tail call void @ERR_set_debug(ptr noundef nonnull @.str.15, i32 noundef 630, ptr noundef nonnull @__func__.v2i_GENERAL_NAME_ex) #4
  tail call void (i32, i32, ptr, ...) @ERR_set_error(i32 noundef 34, i32 noundef 117, ptr noundef nonnull @.str.36, ptr noundef %7) #4
  br label %28

26:                                               ; preds = %23, %21, %19, %17, %15, %13, %11
  %.017 = phi i32 [ 1, %11 ], [ 6, %13 ], [ 2, %15 ], [ 8, %17 ], [ 7, %19 ], [ 4, %21 ], [ 0, %23 ]
  %27 = tail call ptr @a2i_GENERAL_NAME(ptr noundef %0, ptr poison, ptr noundef %2, i32 noundef %.017, ptr noundef nonnull %9, i32 noundef %4)
  br label %28

28:                                               ; preds = %26, %25, %10
  %.0 = phi ptr [ null, %25 ], [ %27, %26 ], [ null, %10 ]
  ret ptr %.0
}